target datalayout = "e-m:e-p270:32:32-p271:32:32-p272:64:64-i64:64-i128:128-f80:128-n8:16:32:64-S128"
target triple = "x86_64-pc-linux-gnu"

%struct._value_string_ext = type { ptr, i32, i32, ptr, ptr }
%struct.obdii_packet_info = type { ptr, i32, i8, i8, i8, i32, i8, i8, i8, i8, i8 }
%struct._packet_info = type { ptr, ptr, i32, i32, %struct.nstime_t, %struct.nstime_t, %struct.nstime_t, i8, ptr, ptr, ptr, ptr, %struct._address, %struct._address, %struct._address, %struct._address, %struct._address, %struct._address, i32, ptr, i8, [3 x i8], %struct.anon, i32, i32, i32, i32, ptr, i8, ptr, ptr, i16, i16, i32, i32, i16, i32, i32, ptr, ptr, ptr, i8, i8, i16, i16, i16, i32, i16, i16, ptr, ptr, ptr, ptr, ptr, i32, i32 }
%struct.nstime_t = type { i64, i32 }
%struct._address = type { i32, i32, ptr, ptr }
%struct.anon = type { i8, [3 x i8] }

@hf_obdii_mode01_pid = internal global i32 0, align 4
@obdii_mode01_pid_vals_ext = internal global %struct._value_string_ext { ptr @_try_val_to_str_ext_init, i32 0, i32 138, ptr @obdii_mode01_pid_vals, ptr @.str.164 }, align 8
@hf_obdii_mode09_pid = internal global i32 0, align 4
@obdii_mode09_pid_vals_ext = internal global %struct._value_string_ext { ptr @_try_val_to_str_ext_init, i32 0, i32 7, ptr @obdii_mode09_pid_vals, ptr @.str.296 }, align 8
@.str.308 = private unnamed_addr constant [15 x i8] c"Unknown (%.2x)\00", align 1
@.str.309 = private unnamed_addr constant [23 x i8] c" Request[%.3x] %s - %s\00", align 1
@.str.310 = private unnamed_addr constant [18 x i8] c" Request[%.3x] %s\00", align 1

; Function Attrs: null_pointer_is_valid sspstrong uwtable
define internal i32 @dissect_obdii_query(ptr noundef %0, ptr noundef %1, ptr noundef %2) #0 {
  %4 = alloca i32, align 4
  %5 = alloca ptr, align 8
  %6 = alloca ptr, align 8
  %7 = alloca ptr, align 8
  %8 = alloca i16, align 2
  %9 = alloca i32, align 4
  %10 = alloca ptr, align 8
  %11 = alloca ptr, align 8
  %12 = alloca i32, align 4
  store ptr %0, ptr %5, align 8
  store ptr %1, ptr %6, align 8
  store ptr %2, ptr %7, align 8
  call void @llvm.lifetime.start.p0(i64 2, ptr %8) #8
  call void @llvm.lifetime.start.p0(i64 4, ptr %9) #8
  call void @llvm.lifetime.start.p0(i64 8, ptr %10) #8
  call void @llvm.lifetime.start.p0(i64 8, ptr %11) #8
  %13 = load ptr, ptr %6, align 8
  %14 = getelementptr inbounds nuw %struct.obdii_packet_info, ptr %13, i32 0, i32 2
  %15 = load i8, ptr %14, align 4
  %16 = zext i8 %15 to i32
  %17 = sub i32 %16, 1
  store i32 %17, ptr %9, align 4
  %18 = load i32, ptr %9, align 4
  %19 = icmp eq i32 %18, 0
  br i1 %19, label %20, label %34

20:                                               ; preds = %3
  %21 = load ptr, ptr %6, align 8
  %22 = getelementptr inbounds nuw %struct.obdii_packet_info, ptr %21, i32 0, i32 3
  %23 = load i8, ptr %22, align 1
  %24 = zext i8 %23 to i32
  %25 = icmp ne i32 %24, 4
  br i1 %25, label %26, label %33

26:                                               ; preds = %20
  %27 = load ptr, ptr %6, align 8
  %28 = getelementptr inbounds nuw %struct.obdii_packet_info, ptr %27, i32 0, i32 3
  %29 = load i8, ptr %28, align 1
  %30 = zext i8 %29 to i32
  %31 = icmp ne i32 %30, 7
  br i1 %31, label %32, label %33

32:                                               ; preds = %26
  store i32 0, ptr %4, align 4
  store i32 1, ptr %12, align 4
  br label %130

33:                                               ; preds = %26, %20
  store i16 0, ptr %8, align 2
  br label %50

34:                                               ; preds = %3
  %35 = load i32, ptr %9, align 4
  %36 = icmp eq i32 %35, 1
  br i1 %36, label %37, label %41

37:                                               ; preds = %34
  %38 = load ptr, ptr %5, align 8
  %39 = call zeroext i8 @tvb_get_uint8(ptr noundef %38, i32 noundef 1)
  %40 = zext i8 %39 to i16
  store i16 %40, ptr %8, align 2
  br label %49

41:                                               ; preds = %34
  %42 = load i32, ptr %9, align 4
  %43 = icmp eq i32 %42, 2
  br i1 %43, label %44, label %47

44:                                               ; preds = %41
  %45 = load ptr, ptr %5, align 8
  %46 = call zeroext i16 @tvb_get_ntohs(ptr noundef %45, i32 noundef 1)
  store i16 %46, ptr %8, align 2
  br label %48

47:                                               ; preds = %41
  store i32 0, ptr %4, align 4
  store i32 1, ptr %12, align 4
  br label %130

48:                                               ; preds = %44
  br label %49

49:                                               ; preds = %48, %37
  br label %50

50:                                               ; preds = %49, %33
  %51 = load ptr, ptr %6, align 8
  %52 = getelementptr inbounds nuw %struct.obdii_packet_info, ptr %51, i32 0, i32 3
  %53 = load i8, ptr %52, align 1
  %54 = zext i8 %53 to i32
  %55 = call ptr @val_to_str(i32 noundef %54, ptr noundef @obdii_mode_vals, ptr noundef @.str.308)
  store ptr %55, ptr %10, align 8
  %56 = load ptr, ptr %6, align 8
  %57 = getelementptr inbounds nuw %struct.obdii_packet_info, ptr %56, i32 0, i32 3
  %58 = load i8, ptr %57, align 1
  %59 = zext i8 %58 to i32
  switch i32 %59, label %112 [
    i32 1, label %60
    i32 4, label %81
    i32 7, label %81
    i32 9, label %91
  ]

60:                                               ; preds = %50
  %61 = load i16, ptr %8, align 2
  %62 = zext i16 %61 to i32
  %63 = call ptr @val_to_str_ext(i32 noundef %62, ptr noundef @obdii_mode01_pid_vals_ext, ptr noundef @.str.308)
  store ptr %63, ptr %11, align 8
  %64 = load ptr, ptr %7, align 8
  %65 = load i32, ptr @hf_obdii_mode01_pid, align 4
  %66 = load ptr, ptr %5, align 8
  %67 = load i32, ptr %9, align 4
  %68 = load i16, ptr %8, align 2
  %69 = zext i16 %68 to i32
  %70 = call ptr @proto_tree_add_uint(ptr noundef %64, i32 noundef %65, ptr noundef %66, i32 noundef 1, i32 noundef %67, i32 noundef %69)
  %71 = load ptr, ptr %6, align 8
  %72 = getelementptr inbounds nuw %struct.obdii_packet_info, ptr %71, i32 0, i32 0
  %73 = load ptr, ptr %72, align 8
  %74 = getelementptr inbounds nuw %struct._packet_info, ptr %73, i32 0, i32 1
  %75 = load ptr, ptr %74, align 8
  %76 = load ptr, ptr %6, align 8
  %77 = getelementptr inbounds nuw %struct.obdii_packet_info, ptr %76, i32 0, i32 1
  %78 = load i32, ptr %77, align 8
  %79 = load ptr, ptr %10, align 8
  %80 = load ptr, ptr %11, align 8
  call void (ptr, i32, ptr, ...) @col_append_fstr(ptr noundef %75, i32 noundef 25, ptr noundef @.str.309, i32 noundef %78, ptr noundef %79, ptr noundef %80)
  br label %127

81:                                               ; preds = %50, %50
  %82 = load ptr, ptr %6, align 8
  %83 = getelementptr inbounds nuw %struct.obdii_packet_info, ptr %82, i32 0, i32 0
  %84 = load ptr, ptr %83, align 8
  %85 = getelementptr inbounds nuw %struct._packet_info, ptr %84, i32 0, i32 1
  %86 = load ptr, ptr %85, align 8
  %87 = load ptr, ptr %6, align 8
  %88 = getelementptr inbounds nuw %struct.obdii_packet_info, ptr %87, i32 0, i32 1
  %89 = load i32, ptr %88, align 8
  %90 = load ptr, ptr %10, align 8
  call void (ptr, i32, ptr, ...) @col_append_fstr(ptr noundef %86, i32 noundef 25, ptr noundef @.str.310, i32 noundef %89, ptr noundef %90)
  br label %127

91:                                               ; preds = %50
  %92 = load i16, ptr %8, align 2
  %93 = zext i16 %92 to i32
  %94 = call ptr @val_to_str_ext(i32 noundef %93, ptr noundef @obdii_mode09_pid_vals_ext, ptr noundef @.str.308)
  store ptr %94, ptr %11, align 8
  %95 = load ptr, ptr %7, align 8
  %96 = load i32, ptr @hf_obdii_mode09_pid, align 4
  %97 = load ptr, ptr %5, align 8
  %98 = load i32, ptr %9, align 4
  %99 = load i16, ptr %8, align 2
  %100 = zext i16 %99 to i32
  %101 = call ptr @proto_tree_add_uint(ptr noundef %95, i32 noundef %96, ptr noundef %97, i32 noundef 1, i32 noundef %98, i32 noundef %100)
  %102 = load ptr, ptr %6, align 8
  %103 = getelementptr inbounds nuw %struct.obdii_packet_info, ptr %102, i32 0, i32 0
  %104 = load ptr, ptr %103, align 8
  %105 = getelementptr inbounds nuw %struct._packet_info, ptr %104, i32 0, i32 1
  %106 = load ptr, ptr %105, align 8
  %107 = load ptr, ptr %6, align 8
  %108 = getelementptr inbounds nuw %struct.obdii_packet_info, ptr %107, i32 0, i32 1
  %109 = load i32, ptr %108, align 8
  %110 = load ptr, ptr %10, align 8
  %111 = load ptr, ptr %11, align 8
  call void (ptr, i32, ptr, ...) @col_append_fstr(ptr noundef %106, i32 noundef 25, ptr noundef @.str.309, i32 noundef %109, ptr noundef %110, ptr noundef %111)
  br label %127

112:                                              ; preds = %50
  %113 = call ptr @wmem_packet_scope()
  %114 = load i16, ptr %8, align 2
  %115 = zext i16 %114 to i32
  %116 = call noalias ptr (ptr, ptr, ...) @wmem_strdup_printf(ptr noundef %113, ptr noundef @.str.308, i32 noundef %115)
  store ptr %116, ptr %11, align 8
  %117 = load ptr, ptr %6, align 8
  %118 = getelementptr inbounds nuw %struct.obdii_packet_info, ptr %117, i32 0, i32 0
  %119 = load ptr, ptr %118, align 8
  %120 = getelementptr inbounds nuw %struct._packet_info, ptr %119, i32 0, i32 1
  %121 = load ptr, ptr %120, align 8
  %122 = load ptr, ptr %6, align 8
  %123 = getelementptr inbounds nuw %struct.obdii_packet_info, ptr %122, i32 0, i32 1
  %124 = load i32, ptr %123, align 8
  %125 = load ptr, ptr %10, align 8
  %126 = load ptr, ptr %11, align 8
  call void (ptr, i32, ptr, ...) @col_append_fstr(ptr noundef %121, i32 noundef 25, ptr noundef @.str.309, i32 noundef %124, ptr noundef %125, ptr noundef %126)
  br label %127

127:                                              ; preds = %112, %91, %81, %60
  %128 = load ptr, ptr %5, align 8
  %129 = call i32 @tvb_captured_length(ptr noundef %128)
  store i32 %129, ptr %4, align 4
  store i32 1, ptr %12, align 4
  br label %130

130:                                              ; preds = %127, %47, %32
  call void @llvm.lifetime.end.p0(i64 8, ptr %11) #8
  call void @llvm.lifetime.end.p0(i64 8, ptr %10) #8
  call void @llvm.lifetime.end.p0(i64 4, ptr %9) #8
  call void @llvm.lifetime.end.p0(i64 2, ptr %8) #8
  %131 = load i32, ptr %4, align 4
  ret i32 %131
}