; Function Attrs: null_pointer_is_valid sspstrong uwtable
define internal fastcc i32 @dissect_obdii_query(ptr noundef %0, ptr noundef readonly captures(none) %1, ptr noundef %2) unnamed_addr #0 {
  %4 = getelementptr inbounds nuw i8, ptr %1, i64 12
  %5 = load i8, ptr %4, align 4
  %6 = zext i8 %5 to i32
  %7 = add nsw i32 %6, -1
  switch i8 %5, label %59 [
    i8 1, label %8
    i8 2, label %11
    i8 3, label %14
  ]

8:                                                ; preds = %3
  %9 = getelementptr inbounds nuw i8, ptr %1, i64 13
  %10 = load i8, ptr %9, align 1
  switch i8 %10, label %59 [
    i8 4, label %16
    i8 7, label %16
  ]

11:                                               ; preds = %3
  %12 = tail call zeroext i8 @tvb_get_uint8(ptr noundef %0, i32 noundef 1)
  %13 = zext i8 %12 to i16
  br label %16

14:                                               ; preds = %3
  %15 = tail call zeroext i16 @tvb_get_ntohs(ptr noundef %0, i32 noundef 1)
  br label %16

16:                                               ; preds = %8, %8, %11, %14
  %.037 = phi i16 [ %13, %11 ], [ %15, %14 ], [ 0, %8 ], [ 0, %8 ]
  %17 = getelementptr inbounds nuw i8, ptr %1, i64 13
  %18 = load i8, ptr %17, align 1
  %19 = zext i8 %18 to i32
  %20 = tail call ptr @val_to_str(i32 noundef %19, ptr noundef nonnull @obdii_mode_vals, ptr noundef nonnull @.str.308)
  %21 = load i8, ptr %17, align 1
  switch i8 %21, label %48 [
    i8 1, label %22
    i8 4, label %32
    i8 7, label %32
    i8 9, label %38
  ]

22:                                               ; preds = %16
  %23 = zext i16 %.037 to i32
  %24 = tail call ptr @val_to_str_ext(i32 noundef %23, ptr noundef nonnull @obdii_mode01_pid_vals_ext, ptr noundef nonnull @.str.308)
  %25 = load i32, ptr @hf_obdii_mode01_pid, align 4
  %26 = tail call ptr @proto_tree_add_uint(ptr noundef %2, i32 noundef %25, ptr noundef %0, i32 noundef 1, i32 noundef %7, i32 noundef %23)
  %27 = load ptr, ptr %1, align 8
  %28 = getelementptr inbounds nuw i8, ptr %27, i64 8
  %29 = load ptr, ptr %28, align 8
  %30 = getelementptr inbounds nuw i8, ptr %1, i64 8
  %31 = load i32, ptr %30, align 8
  tail call void (ptr, i32, ptr, ...) @col_append_fstr(ptr noundef %29, i32 noundef 25, ptr noundef nonnull @.str.309, i32 noundef %31, ptr noundef %20, ptr noundef %24)
  br label %57

32:                                               ; preds = %16, %16
  %33 = load ptr, ptr %1, align 8
  %34 = getelementptr inbounds nuw i8, ptr %33, i64 8
  %35 = load ptr, ptr %34, align 8
  %36 = getelementptr inbounds nuw i8, ptr %1, i64 8
  %37 = load i32, ptr %36, align 8
  tail call void (ptr, i32, ptr, ...) @col_append_fstr(ptr noundef %35, i32 noundef 25, ptr noundef nonnull @.str.310, i32 noundef %37, ptr noundef %20)
  br label %57

38:                                               ; preds = %16
  %39 = zext i16 %.037 to i32
  %40 = tail call ptr @val_to_str_ext(i32 noundef %39, ptr noundef nonnull @obdii_mode09_pid_vals_ext, ptr noundef nonnull @.str.308)
  %41 = load i32, ptr @hf_obdii_mode09_pid, align 4
  %42 = tail call ptr @proto_tree_add_uint(ptr noundef %2, i32 noundef %41, ptr noundef %0, i32 noundef 1, i32 noundef %7, i32 noundef %39)
  %43 = load ptr, ptr %1, align 8
  %44 = getelementptr inbounds nuw i8, ptr %43, i64 8
  %45 = load ptr, ptr %44, align 8
  %46 = getelementptr inbounds nuw i8, ptr %1, i64 8
  %47 = load i32, ptr %46, align 8
  tail call void (ptr, i32, ptr, ...) @col_append_fstr(ptr noundef %45, i32 noundef 25, ptr noundef nonnull @.str.309, i32 noundef %47, ptr noundef %20, ptr noundef %40)
  br label %57

48:                                               ; preds = %16
  %49 = tail call ptr @wmem_packet_scope()
  %50 = zext i16 %.037 to i32
  %51 = tail call noalias ptr (ptr, ptr, ...) @wmem_strdup_printf(ptr noundef %49, ptr noundef nonnull @.str.308, i32 noundef %50)
  %52 = load ptr, ptr %1, align 8
  %53 = getelementptr inbounds nuw i8, ptr %52, i64 8
  %54 = load ptr, ptr %53, align 8
  %55 = getelementptr inbounds nuw i8, ptr %1, i64 8
  %56 = load i32, ptr %55, align 8
  tail call void (ptr, i32, ptr, ...) @col_append_fstr(ptr noundef %54, i32 noundef 25, ptr noundef nonnull @.str.309, i32 noundef %56, ptr noundef %20, ptr noundef %51)
  br label %57

57:                                               ; preds = %48, %38, %32, %22
  %58 = tail call i32 @tvb_captured_length(ptr noundef %0)
  br label %59

59:                                               ; preds = %3, %8, %57
  %.0 = phi i32 [ %58, %57 ], [ 0, %8 ], [ 0, %3 ]
  ret i32 %.0
}